target datalayout = "e-m:e-p270:32:32-p271:32:32-p272:64:64-i64:64-i128:128-f80:128-n8:16:32:64-S128"
target triple = "x86_64-pc-linux-gnu"

%struct.H5C_cache_entry_t = type { ptr, i64, i64, ptr, i8, ptr, i8, i8, i8, i8, i32, i8, i8, i8, i8, i8, i32, ptr, i32, i32, i32, i32, i32, i8, i8, ptr, ptr, ptr, ptr, ptr, ptr, i8, i32, i8, i64, ptr, i64, i64, i32, i8, i32, i32, i8, ptr, ptr, ptr }
%struct.H5EA_hdr_t = type { %struct.H5C_cache_entry_t, %struct.H5EA_create_t, i64, %struct.H5EA_stat_t, %struct.anon.1, i64, i64, i64, ptr, i64, i8, i64, i64, i8, i64, ptr, i64, ptr, i8, ptr, ptr }
%struct.H5EA_create_t = type { ptr, i8, i8, i8, i8, i8, i8 }
%struct.H5EA_stat_t = type { %struct.anon, %struct.anon.0 }
%struct.anon = type { i64, i64, i64 }
%struct.anon.0 = type { i64, i64, i64, i64, i64, i64 }
%struct.anon.1 = type { i64, ptr }
%struct.H5EA_class_t = type { i32, ptr, i64, ptr, ptr, ptr, ptr, ptr, ptr, ptr, ptr }
%struct.H5EA_dblk_page_cache_ud_t = type { ptr, ptr, i64 }
%struct.H5EA_dbk_page_t = type { %struct.H5C_cache_entry_t, ptr, ptr, i64, i64, i8, ptr, ptr }

@H5EA_init_g = external global i8, align 1
@H5_libterm_g = external global i8, align 1
@.str.5 = private unnamed_addr constant [103 x i8] c"generated/home/dtcxzyw/WorkSpace/Projects/compilers/llvm-opt-benchmark/bench/hdf5/hdf5/src/H5EAcache.c\00", align 1
@H5E_EARRAY_g = external global i64, align 8
@H5E_CANTDECODE_g = external global i64, align 8
@H5E_CANTALLOC_g = external global i64, align 8
@H5E_CANTFREE_g = external global i64, align 8
@.str.44 = private unnamed_addr constant [44 x i8] c"can't decode extensible array data elements\00", align 1
@__func__.H5EA__cache_dblk_page_deserialize = private unnamed_addr constant [34 x i8] c"H5EA__cache_dblk_page_deserialize\00", align 1
@.str.53 = private unnamed_addr constant [62 x i8] c"memory allocation failed for extensible array data block page\00", align 1
@.str.54 = private unnamed_addr constant [51 x i8] c"unable to destroy extensible array data block page\00", align 1

; Function Attrs: nounwind uwtable
define internal ptr @H5EA__cache_dblk_page_deserialize(ptr noundef %0, i64 noundef %1, ptr noundef %2, ptr noundef %3) #0 {
  %5 = alloca ptr, align 8
  %6 = alloca i64, align 8
  %7 = alloca ptr, align 8
  %8 = alloca ptr, align 8
  %9 = alloca ptr, align 8
  %10 = alloca ptr, align 8
  %11 = alloca ptr, align 8
  %12 = alloca i32, align 4
  %13 = alloca ptr, align 8
  %14 = alloca i8, align 1
  store ptr %0, ptr %5, align 8, !tbaa !3
  store i64 %1, ptr %6, align 8, !tbaa !19
  store ptr %2, ptr %7, align 8, !tbaa !3
  store ptr %3, ptr %8, align 8, !tbaa !24
  call void @llvm.lifetime.start.p0(i64 8, ptr %9) #8
  store ptr null, ptr %9, align 8, !tbaa !174
  call void @llvm.lifetime.start.p0(i64 8, ptr %10) #8
  %15 = load ptr, ptr %7, align 8, !tbaa !3
  store ptr %15, ptr %10, align 8, !tbaa !170
  call void @llvm.lifetime.start.p0(i64 8, ptr %11) #8
  %16 = load ptr, ptr %5, align 8, !tbaa !3
  store ptr %16, ptr %11, align 8, !tbaa !20
  call void @llvm.lifetime.start.p0(i64 4, ptr %12) #8
  call void @llvm.lifetime.start.p0(i64 8, ptr %13) #8
  store ptr null, ptr %13, align 8, !tbaa !3
  call void @llvm.lifetime.start.p0(i64 1, ptr %14) #8
  store i8 0, ptr %14, align 1, !tbaa !11
  %17 = load i8, ptr @H5EA_init_g, align 1, !tbaa !11, !range !13, !noundef !14
  %18 = trunc i8 %17 to i1
  br i1 %18, label %23, label %19

19:                                               ; preds = %4
  %20 = load i8, ptr @H5_libterm_g, align 1, !tbaa !11, !range !13, !noundef !14
  %21 = trunc i8 %20 to i1
  %22 = xor i1 %21, true
  br label %23

23:                                               ; preds = %19, %4
  %24 = phi i1 [ true, %4 ], [ %22, %19 ]
  %25 = xor i1 %24, true
  %26 = xor i1 %25, true
  %27 = zext i1 %26 to i32
  %28 = sext i32 %27 to i64
  %29 = call i64 @llvm.expect.i64(i64 %28, i64 1)
  %30 = icmp ne i64 %29, 0
  br i1 %30, label %31, label %192

31:                                               ; preds = %23
  %32 = load ptr, ptr %10, align 8, !tbaa !170
  %33 = getelementptr inbounds nuw %struct.H5EA_dblk_page_cache_ud_t, ptr %32, i32 0, i32 0
  %34 = load ptr, ptr %33, align 8, !tbaa !172
  %35 = load ptr, ptr %10, align 8, !tbaa !170
  %36 = getelementptr inbounds nuw %struct.H5EA_dblk_page_cache_ud_t, ptr %35, i32 0, i32 1
  %37 = load ptr, ptr %36, align 8, !tbaa !176
  %38 = call ptr @H5EA__dblk_page_alloc(ptr noundef %34, ptr noundef %37)
  store ptr %38, ptr %9, align 8, !tbaa !174
  %39 = icmp eq ptr null, %38
  br i1 %39, label %40, label %59

40:                                               ; preds = %31
  br label %41

41:                                               ; preds = %40
  br label %42

42:                                               ; preds = %41
  br label %43

43:                                               ; preds = %42
  %44 = load i64, ptr @H5E_EARRAY_g, align 8, !tbaa !19
  %45 = load i64, ptr @H5E_CANTALLOC_g, align 8, !tbaa !19
  %46 = call i32 (ptr, ptr, i32, i64, i64, ptr, ...) @H5E_printf_stack(ptr noundef @.str.5, ptr noundef @__func__.H5EA__cache_dblk_page_deserialize, i32 noundef 1924, i64 noundef %44, i64 noundef %45, ptr noundef @.str.53)
  br label %47

47:                                               ; preds = %43
  br label %48

48:                                               ; preds = %47
  store i8 1, ptr %14, align 1, !tbaa !11
  %49 = load i8, ptr %14, align 1, !tbaa !11, !range !13, !noundef !14
  %50 = trunc i8 %49 to i1
  %51 = zext i1 %50 to i8
  store i8 %51, ptr %14, align 1, !tbaa !11
  br label %52

52:                                               ; preds = %48
  br label %53

53:                                               ; preds = %52
  br label %54

54:                                               ; preds = %53
  store ptr null, ptr %13, align 8, !tbaa !3
  br label %164

55:                                               ; No predecessors!
  br label %56

56:                                               ; preds = %55
  br label %57

57:                                               ; preds = %56
  br label %58

58:                                               ; preds = %57
  br label %59

59:                                               ; preds = %58, %31
  %60 = load ptr, ptr %10, align 8, !tbaa !170
  %61 = getelementptr inbounds nuw %struct.H5EA_dblk_page_cache_ud_t, ptr %60, i32 0, i32 2
  %62 = load i64, ptr %61, align 8, !tbaa !177
  %63 = load ptr, ptr %9, align 8, !tbaa !174
  %64 = getelementptr inbounds nuw %struct.H5EA_dbk_page_t, ptr %63, i32 0, i32 3
  store i64 %62, ptr %64, align 8, !tbaa !178
  %65 = load ptr, ptr %10, align 8, !tbaa !170
  %66 = getelementptr inbounds nuw %struct.H5EA_dblk_page_cache_ud_t, ptr %65, i32 0, i32 0
  %67 = load ptr, ptr %66, align 8, !tbaa !172
  %68 = getelementptr inbounds nuw %struct.H5EA_hdr_t, ptr %67, i32 0, i32 1
  %69 = getelementptr inbounds nuw %struct.H5EA_create_t, ptr %68, i32 0, i32 0
  %70 = load ptr, ptr %69, align 8, !tbaa !48
  %71 = getelementptr inbounds nuw %struct.H5EA_class_t, ptr %70, i32 0, i32 7
  %72 = load ptr, ptr %71, align 8, !tbaa !103
  %73 = load ptr, ptr %11, align 8, !tbaa !20
  %74 = load ptr, ptr %9, align 8, !tbaa !174
  %75 = getelementptr inbounds nuw %struct.H5EA_dbk_page_t, ptr %74, i32 0, i32 1
  %76 = load ptr, ptr %75, align 8, !tbaa !180
  %77 = load ptr, ptr %10, align 8, !tbaa !170
  %78 = getelementptr inbounds nuw %struct.H5EA_dblk_page_cache_ud_t, ptr %77, i32 0, i32 0
  %79 = load ptr, ptr %78, align 8, !tbaa !172
  %80 = getelementptr inbounds nuw %struct.H5EA_hdr_t, ptr %79, i32 0, i32 16
  %81 = load i64, ptr %80, align 8, !tbaa !128
  %82 = load ptr, ptr %10, align 8, !tbaa !170
  %83 = getelementptr inbounds nuw %struct.H5EA_dblk_page_cache_ud_t, ptr %82, i32 0, i32 0
  %84 = load ptr, ptr %83, align 8, !tbaa !172
  %85 = getelementptr inbounds nuw %struct.H5EA_hdr_t, ptr %84, i32 0, i32 17
  %86 = load ptr, ptr %85, align 8, !tbaa !105
  %87 = call i32 %72(ptr noundef %73, ptr noundef %76, i64 noundef %81, ptr noundef %86)
  %88 = icmp slt i32 %87, 0
  br i1 %88, label %89, label %108

89:                                               ; preds = %59
  br label %90

90:                                               ; preds = %89
  br label %91

91:                                               ; preds = %90
  br label %92

92:                                               ; preds = %91
  %93 = load i64, ptr @H5E_EARRAY_g, align 8, !tbaa !19
  %94 = load i64, ptr @H5E_CANTDECODE_g, align 8, !tbaa !19
  %95 = call i32 (ptr, ptr, i32, i64, i64, ptr, ...) @H5E_printf_stack(ptr noundef @.str.5, ptr noundef @__func__.H5EA__cache_dblk_page_deserialize, i32 noundef 1935, i64 noundef %93, i64 noundef %94, ptr noundef @.str.44)
  br label %96

96:                                               ; preds = %92
  br label %97

97:                                               ; preds = %96
  store i8 1, ptr %14, align 1, !tbaa !11
  %98 = load i8, ptr %14, align 1, !tbaa !11, !range !13, !noundef !14
  %99 = trunc i8 %98 to i1
  %100 = zext i1 %99 to i8
  store i8 %100, ptr %14, align 1, !tbaa !11
  br label %101

101:                                              ; preds = %97
  br label %102

102:                                              ; preds = %101
  br label %103

103:                                              ; preds = %102
  store ptr null, ptr %13, align 8, !tbaa !3
  br label %164

104:                                              ; No predecessors!
  br label %105

105:                                              ; preds = %104
  br label %106

106:                                              ; preds = %105
  br label %107

107:                                              ; preds = %106
  br label %108

108:                                              ; preds = %107, %59
  %109 = load ptr, ptr %10, align 8, !tbaa !170
  %110 = getelementptr inbounds nuw %struct.H5EA_dblk_page_cache_ud_t, ptr %109, i32 0, i32 0
  %111 = load ptr, ptr %110, align 8, !tbaa !172
  %112 = getelementptr inbounds nuw %struct.H5EA_hdr_t, ptr %111, i32 0, i32 16
  %113 = load i64, ptr %112, align 8, !tbaa !128
  %114 = load ptr, ptr %10, align 8, !tbaa !170
  %115 = getelementptr inbounds nuw %struct.H5EA_dblk_page_cache_ud_t, ptr %114, i32 0, i32 0
  %116 = load ptr, ptr %115, align 8, !tbaa !172
  %117 = getelementptr inbounds nuw %struct.H5EA_hdr_t, ptr %116, i32 0, i32 1
  %118 = getelementptr inbounds nuw %struct.H5EA_create_t, ptr %117, i32 0, i32 1
  %119 = load i8, ptr %118, align 8, !tbaa !49
  %120 = zext i8 %119 to i64
  %121 = mul i64 %113, %120
  %122 = load ptr, ptr %11, align 8, !tbaa !20
  %123 = getelementptr inbounds nuw i8, ptr %122, i64 %121
  store ptr %123, ptr %11, align 8, !tbaa !20
  %124 = load i64, ptr %6, align 8, !tbaa !19
  %125 = load ptr, ptr %9, align 8, !tbaa !174
  %126 = getelementptr inbounds nuw %struct.H5EA_dbk_page_t, ptr %125, i32 0, i32 4
  store i64 %124, ptr %126, align 8, !tbaa !181
  br label %127

127:                                              ; preds = %108
  %128 = load ptr, ptr %11, align 8, !tbaa !20
  %129 = load i8, ptr %128, align 1, !tbaa !46
  %130 = zext i8 %129 to i32
  %131 = and i32 %130, 255
  store i32 %131, ptr %12, align 4, !tbaa !22
  %132 = load ptr, ptr %11, align 8, !tbaa !20
  %133 = getelementptr inbounds nuw i8, ptr %132, i32 1
  store ptr %133, ptr %11, align 8, !tbaa !20
  %134 = load ptr, ptr %11, align 8, !tbaa !20
  %135 = load i8, ptr %134, align 1, !tbaa !46
  %136 = zext i8 %135 to i32
  %137 = and i32 %136, 255
  %138 = shl i32 %137, 8
  %139 = load i32, ptr %12, align 4, !tbaa !22
  %140 = or i32 %139, %138
  store i32 %140, ptr %12, align 4, !tbaa !22
  %141 = load ptr, ptr %11, align 8, !tbaa !20
  %142 = getelementptr inbounds nuw i8, ptr %141, i32 1
  store ptr %142, ptr %11, align 8, !tbaa !20
  %143 = load ptr, ptr %11, align 8, !tbaa !20
  %144 = load i8, ptr %143, align 1, !tbaa !46
  %145 = zext i8 %144 to i32
  %146 = and i32 %145, 255
  %147 = shl i32 %146, 16
  %148 = load i32, ptr %12, align 4, !tbaa !22
  %149 = or i32 %148, %147
  store i32 %149, ptr %12, align 4, !tbaa !22
  %150 = load ptr, ptr %11, align 8, !tbaa !20
  %151 = getelementptr inbounds nuw i8, ptr %150, i32 1
  store ptr %151, ptr %11, align 8, !tbaa !20
  %152 = load ptr, ptr %11, align 8, !tbaa !20
  %153 = load i8, ptr %152, align 1, !tbaa !46
  %154 = zext i8 %153 to i32
  %155 = and i32 %154, 255
  %156 = shl i32 %155, 24
  %157 = load i32, ptr %12, align 4, !tbaa !22
  %158 = or i32 %157, %156
  store i32 %158, ptr %12, align 4, !tbaa !22
  %159 = load ptr, ptr %11, align 8, !tbaa !20
  %160 = getelementptr inbounds nuw i8, ptr %159, i32 1
  store ptr %160, ptr %11, align 8, !tbaa !20
  br label %161

161:                                              ; preds = %127
  br label %162

162:                                              ; preds = %161
  %163 = load ptr, ptr %9, align 8, !tbaa !174
  store ptr %163, ptr %13, align 8, !tbaa !3
  br label %164

164:                                              ; preds = %162, %103, %54
  %165 = load ptr, ptr %13, align 8, !tbaa !3
  %166 = icmp ne ptr %165, null
  br i1 %166, label %191, label %167

167:                                              ; preds = %164
  %168 = load ptr, ptr %9, align 8, !tbaa !174
  %169 = icmp ne ptr %168, null
  br i1 %169, label %170, label %190

170:                                              ; preds = %167
  %171 = load ptr, ptr %9, align 8, !tbaa !174
  %172 = call i32 @H5EA__dblk_page_dest(ptr noundef %171)
  %173 = icmp slt i32 %172, 0
  br i1 %173, label %174, label %190

174:                                              ; preds = %170
  br label %175

175:                                              ; preds = %174
  br label %176

176:                                              ; preds = %175
  br label %177

177:                                              ; preds = %176
  %178 = load i64, ptr @H5E_EARRAY_g, align 8, !tbaa !19
  %179 = load i64, ptr @H5E_CANTFREE_g, align 8, !tbaa !19
  %180 = call i32 (ptr, ptr, i32, i64, i64, ptr, ...) @H5E_printf_stack(ptr noundef @.str.5, ptr noundef @__func__.H5EA__cache_dblk_page_deserialize, i32 noundef 1960, i64 noundef %178, i64 noundef %179, ptr noundef @.str.54)
  br label %181

181:                                              ; preds = %177
  br label %182

182:                                              ; preds = %181
  store i8 1, ptr %14, align 1, !tbaa !11
  %183 = load i8, ptr %14, align 1, !tbaa !11, !range !13, !noundef !14
  %184 = trunc i8 %183 to i1
  %185 = zext i1 %184 to i8
  store i8 %185, ptr %14, align 1, !tbaa !11
  br label %186

186:                                              ; preds = %182
  br label %187

187:                                              ; preds = %186
  store ptr null, ptr %13, align 8, !tbaa !3
  br label %188

188:                                              ; preds = %187
  br label %189

189:                                              ; preds = %188
  br label %190

190:                                              ; preds = %189, %170, %167
  br label %191

191:                                              ; preds = %190, %164
  br label %192

192:                                              ; preds = %191, %23
  %193 = load ptr, ptr %13, align 8, !tbaa !3
  call void @llvm.lifetime.end.p0(i64 1, ptr %14) #8
  call void @llvm.lifetime.end.p0(i64 8, ptr %13) #8
  call void @llvm.lifetime.end.p0(i64 4, ptr %12) #8
  call void @llvm.lifetime.end.p0(i64 8, ptr %11) #8
  call void @llvm.lifetime.end.p0(i64 8, ptr %10) #8
  call void @llvm.lifetime.end.p0(i64 8, ptr %9) #8
  ret ptr %193
}