; Function Attrs: nounwind uwtable
define internal ptr @H5EA__cache_dblk_page_deserialize(ptr noundef %0, i64 noundef %1, ptr noundef readonly captures(none) %2, ptr readnone captures(none) %3) #0 {
  %5 = load i8, ptr @H5EA_init_g, align 1, !tbaa !3, !range !7, !noundef !8
  %6 = trunc nuw i8 %5 to i1
  %7 = load i8, ptr @H5_libterm_g, align 1, !range !7
  %8 = trunc nuw i8 %7 to i1
  %9 = xor i1 %8, true
  %10 = select i1 %6, i1 true, i1 %9
  br i1 %10, label %11, label %.thread, !prof !9

11:                                               ; preds = %4
  %12 = load ptr, ptr %2, align 8, !tbaa !146
  %13 = getelementptr inbounds nuw i8, ptr %2, i64 8
  %14 = load ptr, ptr %13, align 8, !tbaa !149
  %15 = tail call ptr @H5EA__dblk_page_alloc(ptr noundef %12, ptr noundef %14) #6
  %16 = icmp eq ptr %15, null
  br i1 %16, label %17, label %21

17:                                               ; preds = %11
  %18 = load i64, ptr @H5E_EARRAY_g, align 8, !tbaa !15
  %19 = load i64, ptr @H5E_CANTALLOC_g, align 8, !tbaa !15
  %20 = tail call i32 (ptr, ptr, i32, i64, i64, ptr, ...) @H5E_printf_stack(ptr noundef nonnull @.str.5, ptr noundef nonnull @__func__.H5EA__cache_dblk_page_deserialize, i32 noundef 1924, i64 noundef %18, i64 noundef %19, ptr noundef nonnull @.str.53) #6
  br label %.thread

21:                                               ; preds = %11
  %22 = getelementptr inbounds nuw i8, ptr %2, i64 16
  %23 = load i64, ptr %22, align 8, !tbaa !150
  %24 = getelementptr inbounds nuw i8, ptr %15, i64 264
  store i64 %23, ptr %24, align 8, !tbaa !151
  %25 = load ptr, ptr %2, align 8, !tbaa !146
  %26 = getelementptr inbounds nuw i8, ptr %25, i64 248
  %27 = load ptr, ptr %26, align 8, !tbaa !41
  %28 = getelementptr inbounds nuw i8, ptr %27, i64 56
  %29 = load ptr, ptr %28, align 8, !tbaa !84
  %30 = getelementptr inbounds nuw i8, ptr %15, i64 248
  %31 = load ptr, ptr %30, align 8, !tbaa !153
  %32 = getelementptr inbounds nuw i8, ptr %25, i64 448
  %33 = load i64, ptr %32, align 8, !tbaa !107
  %34 = getelementptr inbounds nuw i8, ptr %25, i64 456
  %35 = load ptr, ptr %34, align 8, !tbaa !86
  %36 = tail call i32 %29(ptr noundef %0, ptr noundef %31, i64 noundef %33, ptr noundef %35) #6
  %37 = icmp slt i32 %36, 0
  br i1 %37, label %40, label %38

38:                                               ; preds = %21
  %39 = getelementptr inbounds nuw i8, ptr %15, i64 272
  store i64 %1, ptr %39, align 8, !tbaa !154
  br label %.thread

40:                                               ; preds = %21
  %41 = load i64, ptr @H5E_EARRAY_g, align 8, !tbaa !15
  %42 = load i64, ptr @H5E_CANTDECODE_g, align 8, !tbaa !15
  %43 = tail call i32 (ptr, ptr, i32, i64, i64, ptr, ...) @H5E_printf_stack(ptr noundef nonnull @.str.5, ptr noundef nonnull @__func__.H5EA__cache_dblk_page_deserialize, i32 noundef 1935, i64 noundef %41, i64 noundef %42, ptr noundef nonnull @.str.44) #6
  %44 = tail call i32 @H5EA__dblk_page_dest(ptr noundef nonnull %15) #6
  %45 = icmp slt i32 %44, 0
  br i1 %45, label %46, label %.thread

46:                                               ; preds = %40
  %47 = load i64, ptr @H5E_EARRAY_g, align 8, !tbaa !15
  %48 = load i64, ptr @H5E_CANTFREE_g, align 8, !tbaa !15
  %49 = tail call i32 (ptr, ptr, i32, i64, i64, ptr, ...) @H5E_printf_stack(ptr noundef nonnull @.str.5, ptr noundef nonnull @__func__.H5EA__cache_dblk_page_deserialize, i32 noundef 1960, i64 noundef %47, i64 noundef %48, ptr noundef nonnull @.str.54) #6
  br label %.thread

.thread:                                          ; preds = %17, %38, %46, %40, %4
  %.0 = phi ptr [ null, %46 ], [ null, %40 ], [ null, %4 ], [ %15, %38 ], [ null, %17 ]
  ret ptr %.0
}